; Function Attrs: mustprogress uwtable
define internal void @_ZNSt17_Function_handlerIFviESt5_BindIFPFvPN12_GLOBAL__N_111TestContextEiES4_St12_PlaceholderILi1EEEEE9_M_invokeERKSt9_Any_dataOi(ptr nocapture noundef nonnull readonly align 8 dereferenceable(16) %__functor, ptr nocapture noundef nonnull readonly align 4 dereferenceable(4) %__args) #3 align 2 personality ptr @__gxx_personality_v0 {
entry:
  %__functor.val = load ptr, ptr %__functor, align 8
  %call.val = load ptr, ptr %__functor.val, align 8
  %0 = getelementptr i8, ptr %__functor.val, i64 8
  %call.val1 = load ptr, ptr %0, align 8
  %__args.val = load i32, ptr %__args, align 4
  tail call void %call.val(ptr noundef %call.val1, i32 noundef %__args.val)
  ret void
}